; Function Attrs: null_pointer_is_valid sspstrong uwtable
define hidden noundef ptr @fvalue_from_charconst(i32 noundef %0, i64 noundef %1, ptr noundef %2) local_unnamed_addr #0 {
  %4 = tail call noalias dereferenceable_or_null(40) ptr @g_slice_alloc(i64 noundef 40) #10
  %5 = zext i32 %0 to i64
  %6 = getelementptr [48 x ptr], ptr @type_list, i64 0, i64 %5
  %7 = load ptr, ptr %6, align 8
  store ptr %7, ptr %4, align 8
  %8 = getelementptr inbounds nuw i8, ptr %7, i64 8
  %9 = load ptr, ptr %8, align 8
  %.not.i = icmp eq ptr %9, null
  br i1 %.not.i, label %fvalue_new.exit, label %10

10:                                               ; preds = %3
  tail call void %9(ptr noundef %4)
  %.pre = load ptr, ptr %4, align 8
  br label %fvalue_new.exit

fvalue_new.exit:                                  ; preds = %3, %10
  %11 = phi ptr [ %7, %3 ], [ %.pre, %10 ]
  %12 = getelementptr inbounds nuw i8, ptr %11, i64 48
  %13 = load ptr, ptr %12, align 8
  %.not = icmp eq ptr %13, null
  br i1 %.not, label %18, label %14

14:                                               ; preds = %fvalue_new.exit
  %15 = tail call zeroext i1 %13(ptr noundef %4, i64 noundef %1, ptr noundef %2)
  br i1 %15, label %16, label %18

16:                                               ; preds = %14
  %.not26 = icmp eq ptr %2, null
  br i1 %.not26, label %46, label %17

17:                                               ; preds = %16
  store ptr null, ptr %2, align 8
  br label %46

18:                                               ; preds = %14, %fvalue_new.exit
  %.not24 = icmp eq ptr %2, null
  br i1 %.not24, label %41, label %19

19:                                               ; preds = %18
  %20 = load ptr, ptr %2, align 8
  %21 = icmp eq ptr %20, null
  br i1 %21, label %22, label %41

22:                                               ; preds = %19
  %23 = icmp ult i64 %1, 128
  br i1 %23, label %24, label %._crit_edge

._crit_edge:                                      ; preds = %22
  %.pre29 = load ptr, ptr %6, align 8
  br label %35

24:                                               ; preds = %22
  %25 = load ptr, ptr @g_ascii_table, align 8
  %26 = getelementptr i16, ptr %25, i64 %1
  %27 = load i16, ptr %26, align 2
  %28 = and i16 %27, 64
  %.not25 = icmp eq i16 %28, 0
  %.pre30 = load ptr, ptr %6, align 8
  br i1 %.not25, label %35, label %29

29:                                               ; preds = %24
  %30 = trunc nuw nsw i64 %1 to i32
  %31 = load i32, ptr %.pre30, align 8
  %32 = icmp ult i32 %31, 48
  br i1 %32, label %switch.lookup, label %ftype_pretty_name.exit

switch.lookup:                                    ; preds = %29
  %33 = zext nneg i32 %31 to i64
  %switch.gep = getelementptr inbounds nuw [48 x ptr], ptr @switch.table.fvalue_from_floating, i64 0, i64 %33
  %switch.load = load ptr, ptr %switch.gep, align 8
  br label %ftype_pretty_name.exit

ftype_pretty_name.exit:                           ; preds = %switch.lookup, %29
  %.0.i = phi ptr [ @.str.3, %29 ], [ %switch.load, %switch.lookup ]
  %34 = tail call noalias ptr (ptr, ptr, ...) @wmem_strdup_printf(ptr noundef null, ptr noundef nonnull @.str.97, i32 noundef %30, i64 noundef %1, ptr noundef nonnull %.0.i)
  br label %.sink.split

35:                                               ; preds = %._crit_edge, %24
  %36 = phi ptr [ %.pre29, %._crit_edge ], [ %.pre30, %24 ]
  %37 = load i32, ptr %36, align 8
  %38 = icmp ult i32 %37, 48
  br i1 %38, label %switch.lookup31, label %ftype_pretty_name.exit28

switch.lookup31:                                  ; preds = %35
  %39 = zext nneg i32 %37 to i64
  %switch.gep32 = getelementptr inbounds nuw [48 x ptr], ptr @switch.table.fvalue_from_floating, i64 0, i64 %39
  %switch.load33 = load ptr, ptr %switch.gep32, align 8
  br label %ftype_pretty_name.exit28

ftype_pretty_name.exit28:                         ; preds = %switch.lookup31, %35
  %.0.i27 = phi ptr [ @.str.3, %35 ], [ %switch.load33, %switch.lookup31 ]
  %40 = tail call noalias ptr (ptr, ptr, ...) @wmem_strdup_printf(ptr noundef null, ptr noundef nonnull @.str.98, i64 noundef %1, ptr noundef nonnull %.0.i27)
  br label %.sink.split

.sink.split:                                      ; preds = %ftype_pretty_name.exit, %ftype_pretty_name.exit28
  %.sink = phi ptr [ %40, %ftype_pretty_name.exit28 ], [ %34, %ftype_pretty_name.exit ]
  store ptr %.sink, ptr %2, align 8
  br label %41

41:                                               ; preds = %.sink.split, %18, %19
  %42 = load ptr, ptr %4, align 8
  %43 = getelementptr inbounds nuw i8, ptr %42, i64 24
  %44 = load ptr, ptr %43, align 8
  %.not.i.i = icmp eq ptr %44, null
  br i1 %.not.i.i, label %fvalue_free.exit, label %45

45:                                               ; preds = %41
  tail call void %44(ptr noundef %4)
  br label %fvalue_free.exit

fvalue_free.exit:                                 ; preds = %41, %45
  tail call void @g_slice_free1(i64 noundef 40, ptr noundef %4)
  br label %46

46:                                               ; preds = %16, %17, %fvalue_free.exit
  %.0 = phi ptr [ null, %fvalue_free.exit ], [ %4, %17 ], [ %4, %16 ]
  ret ptr %.0
}